; Function Attrs: nounwind uwtable
define noalias nonnull ptr @l_Lean_Compiler_LCNF_Simp_instMonadSimpM___lambda__1(ptr noundef readnone captures(none) %0, ptr noundef %1, ptr noundef readnone captures(none) %2, ptr noundef readnone captures(none) %3, ptr noundef readnone captures(none) %4, ptr noundef readnone captures(none) %5, ptr noundef readnone captures(none) %6, ptr noundef readnone captures(none) %7, ptr noundef readnone captures(none) %8, ptr noundef %9) local_unnamed_addr #0 {
  tail call void @lean_inc_heartbeat() #5
  %11 = tail call noalias ptr @mi_malloc_small(i64 noundef 24) #5
  %12 = icmp eq ptr %11, null
  br i1 %12, label %13, label %lean_alloc_ctor.exit

13:                                               ; preds = %10
  tail call void @lean_internal_panic_out_of_memory() #6
  unreachable

lean_alloc_ctor.exit:                             ; preds = %10
  %14 = getelementptr inbounds nuw i8, ptr %11, i64 4
  store i32 1, ptr %11, align 4, !tbaa !4
  store i32 131096, ptr %14, align 4
  %15 = getelementptr inbounds nuw i8, ptr %11, i64 8
  store ptr %1, ptr %15, align 8, !tbaa !9
  %16 = getelementptr inbounds nuw i8, ptr %11, i64 16
  store ptr %9, ptr %16, align 8, !tbaa !9
  ret ptr %11
}